target datalayout = "e-m:e-p270:32:32-p271:32:32-p272:64:64-i64:64-i128:128-f80:128-n8:16:32:64-S128"
target triple = "x86_64-pc-linux-gnu"

%struct.Vec_Int_t_ = type { i32, i32, ptr }
%struct.Gia_Obj_t_ = type <{ i64, i32 }>
%struct.Gia_Man_t_ = type { ptr, ptr, i32, i32, i32, i32, ptr, ptr, i32, i32, i32, ptr, ptr, %struct.Vec_Int_t_, %struct.Vec_Int_t_, i32, i32, i32, %struct.Vec_Int_t_, ptr, ptr, ptr, i32, i32, i32, i32, ptr, ptr, ptr, ptr, ptr, i32, i32, ptr, i32, ptr, ptr, ptr, ptr, ptr, ptr, ptr, ptr, ptr, ptr, ptr, ptr, ptr, ptr, ptr, ptr, ptr, ptr, %struct.Vec_Int_t_, %struct.Vec_Int_t_, ptr, ptr, ptr, ptr, ptr, ptr, ptr, ptr, ptr, ptr, ptr, ptr, ptr, ptr, ptr, ptr, ptr, ptr, ptr, ptr, ptr, i32, float, float, ptr, ptr, i32, ptr, ptr, ptr, ptr, ptr, ptr, ptr, ptr, ptr, ptr, ptr, ptr, ptr, ptr, ptr, i64, i64, ptr, ptr, i32, i32, i32, i32, i32, i32, i32, i32, i32, i32, i32, i32, ptr, ptr, ptr, ptr, ptr, ptr, ptr, ptr, i32, i32, i32, ptr, i32, i32, ptr, ptr, ptr, ptr, ptr, ptr, i32, i32, ptr, %struct.Vec_Int_t_, %struct.Vec_Int_t_, %struct.Vec_Int_t_, ptr, ptr, ptr, i32, i32, i32, i32, ptr, ptr, ptr, ptr, ptr }

; Function Attrs: inlinehint nounwind uwtable
define internal ptr @Gia_ObjFanin0(ptr noundef %0) #4 {
  %2 = alloca ptr, align 8
  store ptr %0, ptr %2, align 8, !tbaa !35
  %3 = load ptr, ptr %2, align 8, !tbaa !35
  %4 = load ptr, ptr %2, align 8, !tbaa !35
  %5 = load i64, ptr %4, align 4
  %6 = and i64 %5, 536870911
  %7 = trunc i64 %6 to i32
  %8 = sext i32 %7 to i64
  %9 = sub i64 0, %8
  %10 = getelementptr inbounds %struct.Gia_Obj_t_, ptr %3, i64 %9
  ret ptr %10
}

; Function Attrs: inlinehint nounwind uwtable
define internal ptr @Gia_ManObj(ptr noundef %0, i32 noundef %1) #4 {
  %3 = alloca ptr, align 8
  %4 = alloca i32, align 4
  store ptr %0, ptr %3, align 8, !tbaa !34
  store i32 %1, ptr %4, align 4, !tbaa !27
  %5 = load ptr, ptr %3, align 8, !tbaa !34
  %6 = getelementptr inbounds nuw %struct.Gia_Man_t_, ptr %5, i32 0, i32 6
  %7 = load ptr, ptr %6, align 8, !tbaa !39
  %8 = load i32, ptr %4, align 4, !tbaa !27
  %9 = sext i32 %8 to i64
  %10 = getelementptr inbounds %struct.Gia_Obj_t_, ptr %7, i64 %9
  ret ptr %10
}

; Function Attrs: inlinehint nounwind uwtable
define internal i32 @Vec_IntEntry(ptr noundef %0, i32 noundef %1) #4 {
  %3 = alloca ptr, align 8
  %4 = alloca i32, align 4
  store ptr %0, ptr %3, align 8, !tbaa !10
  store i32 %1, ptr %4, align 4, !tbaa !27
  %5 = load ptr, ptr %3, align 8, !tbaa !10
  %6 = getelementptr inbounds nuw %struct.Vec_Int_t_, ptr %5, i32 0, i32 2
  %7 = load ptr, ptr %6, align 8, !tbaa !33
  %8 = load i32, ptr %4, align 4, !tbaa !27
  %9 = sext i32 %8 to i64
  %10 = getelementptr inbounds i32, ptr %7, i64 %9
  %11 = load i32, ptr %10, align 4, !tbaa !27
  ret i32 %11
}

; Function Attrs: inlinehint nounwind uwtable
define internal i32 @Vec_IntSize(ptr noundef %0) #4 {
  %2 = alloca ptr, align 8
  store ptr %0, ptr %2, align 8, !tbaa !10
  %3 = load ptr, ptr %2, align 8, !tbaa !10
  %4 = getelementptr inbounds nuw %struct.Vec_Int_t_, ptr %3, i32 0, i32 1
  %5 = load i32, ptr %4, align 4, !tbaa !29
  ret i32 %5
}

; Function Attrs: nounwind uwtable
define i32 @Txs_ManFindMinId(ptr noundef %0, ptr noundef %1, ptr noundef %2) #0 {
  %4 = alloca ptr, align 8
  %5 = alloca ptr, align 8
  %6 = alloca ptr, align 8
  %7 = alloca ptr, align 8
  %8 = alloca i32, align 4
  %9 = alloca i32, align 4
  store ptr %0, ptr %4, align 8, !tbaa !34
  store ptr %1, ptr %5, align 8, !tbaa !10
  store ptr %2, ptr %6, align 8, !tbaa !10
  call void @llvm.lifetime.start.p0(i64 8, ptr %7) #8
  call void @llvm.lifetime.start.p0(i64 4, ptr %8) #8
  call void @llvm.lifetime.start.p0(i64 4, ptr %9) #8
  store i32 -1, ptr %9, align 4, !tbaa !27
  store i32 0, ptr %8, align 4, !tbaa !27
  br label %10

10:                                               ; preds = %51, %3
  %11 = load i32, ptr %8, align 4, !tbaa !27
  %12 = load ptr, ptr %5, align 8, !tbaa !10
  %13 = call i32 @Vec_IntSize(ptr noundef %12)
  %14 = icmp slt i32 %11, %13
  br i1 %14, label %15, label %22

15:                                               ; preds = %10
  %16 = load ptr, ptr %4, align 8, !tbaa !34
  %17 = load ptr, ptr %5, align 8, !tbaa !10
  %18 = load i32, ptr %8, align 4, !tbaa !27
  %19 = call i32 @Vec_IntEntry(ptr noundef %17, i32 noundef %18)
  %20 = call ptr @Gia_ManObj(ptr noundef %16, i32 noundef %19)
  store ptr %20, ptr %7, align 8, !tbaa !35
  %21 = icmp ne ptr %20, null
  br label %22

22:                                               ; preds = %15, %10
  %23 = phi i1 [ false, %10 ], [ %21, %15 ]
  br i1 %23, label %24, label %54

24:                                               ; preds = %22
  %25 = load ptr, ptr %7, align 8, !tbaa !35
  %26 = call ptr @Gia_ObjFanin0(ptr noundef %25)
  %27 = getelementptr inbounds nuw %struct.Gia_Obj_t_, ptr %26, i32 0, i32 1
  %28 = load i32, ptr %27, align 4, !tbaa !37
  %29 = icmp ne i32 %28, 2147483647
  br i1 %29, label %30, label %50

30:                                               ; preds = %24
  %31 = load i32, ptr %9, align 4, !tbaa !27
  %32 = icmp eq i32 %31, -1
  br i1 %32, label %44, label %33

33:                                               ; preds = %30
  %34 = load ptr, ptr %6, align 8, !tbaa !10
  %35 = load i32, ptr %9, align 4, !tbaa !27
  %36 = call i32 @Vec_IntEntry(ptr noundef %34, i32 noundef %35)
  %37 = load ptr, ptr %6, align 8, !tbaa !10
  %38 = load ptr, ptr %7, align 8, !tbaa !35
  %39 = call ptr @Gia_ObjFanin0(ptr noundef %38)
  %40 = getelementptr inbounds nuw %struct.Gia_Obj_t_, ptr %39, i32 0, i32 1
  %41 = load i32, ptr %40, align 4, !tbaa !37
  %42 = call i32 @Vec_IntEntry(ptr noundef %37, i32 noundef %41)
  %43 = icmp sgt i32 %36, %42
  br i1 %43, label %44, label %49

44:                                               ; preds = %33, %30
  %45 = load ptr, ptr %7, align 8, !tbaa !35
  %46 = call ptr @Gia_ObjFanin0(ptr noundef %45)
  %47 = getelementptr inbounds nuw %struct.Gia_Obj_t_, ptr %46, i32 0, i32 1
  %48 = load i32, ptr %47, align 4, !tbaa !37
  store i32 %48, ptr %9, align 4, !tbaa !27
  br label %49

49:                                               ; preds = %44, %33
  br label %50

50:                                               ; preds = %49, %24
  br label %51

51:                                               ; preds = %50
  %52 = load i32, ptr %8, align 4, !tbaa !27
  %53 = add nsw i32 %52, 1
  store i32 %53, ptr %8, align 4, !tbaa !27
  br label %10, !llvm.loop !70

54:                                               ; preds = %22
  %55 = load i32, ptr %9, align 4, !tbaa !27
  call void @llvm.lifetime.end.p0(i64 4, ptr %9) #8
  call void @llvm.lifetime.end.p0(i64 4, ptr %8) #8
  call void @llvm.lifetime.end.p0(i64 8, ptr %7) #8
  ret i32 %55
}