; Function Attrs: nofree norecurse nosync nounwind memory(read, inaccessiblemem: none) uwtable
define i32 @Txs_ManFindMinId(ptr noundef readonly captures(none) %0, ptr noundef readonly captures(none) %1, ptr noundef readonly captures(none) %2) local_unnamed_addr #6 {
  %4 = getelementptr i8, ptr %1, i64 4
  %.val = load i32, ptr %4, align 4, !tbaa !12
  %5 = icmp sgt i32 %.val, 0
  br i1 %5, label %.lr.ph, label %.critedge

.lr.ph:                                           ; preds = %3
  %6 = getelementptr i8, ptr %0, i64 32
  %.val19 = load ptr, ptr %6, align 8, !tbaa !29
  %.not = icmp eq ptr %.val19, null
  %7 = getelementptr i8, ptr %2, i64 8
  br i1 %.not, label %.critedge, label %.lr.ph.split

.lr.ph.split:                                     ; preds = %.lr.ph
  %8 = getelementptr i8, ptr %1, i64 8
  %.val18 = load ptr, ptr %8, align 8, !tbaa !17
  %wide.trip.count = zext nneg i32 %.val to i64
  br label %9

9:                                                ; preds = %.lr.ph.split, %30
  %indvars.iv = phi i64 [ 0, %.lr.ph.split ], [ %indvars.iv.next, %30 ]
  %.021 = phi i32 [ -1, %.lr.ph.split ], [ %.1, %30 ]
  %10 = getelementptr inbounds nuw i32, ptr %.val18, i64 %indvars.iv
  %11 = load i32, ptr %10, align 4, !tbaa !46
  %12 = sext i32 %11 to i64
  %13 = getelementptr inbounds %struct.Gia_Obj_t_, ptr %.val19, i64 %12
  %14 = load i64, ptr %13, align 4
  %15 = and i64 %14, 536870911
  %16 = sub nsw i64 0, %15
  %17 = getelementptr inbounds %struct.Gia_Obj_t_, ptr %13, i64 %16, i32 1
  %18 = load i32, ptr %17, align 4, !tbaa !27
  %.not15 = icmp eq i32 %18, 2147483647
  br i1 %.not15, label %30, label %19

19:                                               ; preds = %9
  %20 = icmp eq i32 %.021, -1
  br i1 %20, label %29, label %21

21:                                               ; preds = %19
  %.val17 = load ptr, ptr %7, align 8, !tbaa !17
  %22 = sext i32 %.021 to i64
  %23 = getelementptr inbounds i32, ptr %.val17, i64 %22
  %24 = load i32, ptr %23, align 4, !tbaa !46
  %25 = sext i32 %18 to i64
  %26 = getelementptr inbounds i32, ptr %.val17, i64 %25
  %27 = load i32, ptr %26, align 4, !tbaa !46
  %28 = icmp sgt i32 %24, %27
  br i1 %28, label %29, label %30

29:                                               ; preds = %21, %19
  br label %30

30:                                               ; preds = %9, %29, %21
  %.1 = phi i32 [ %18, %29 ], [ %.021, %21 ], [ %.021, %9 ]
  %indvars.iv.next = add nuw nsw i64 %indvars.iv, 1
  %exitcond.not = icmp eq i64 %indvars.iv.next, %wide.trip.count
  br i1 %exitcond.not, label %.critedge, label %9, !llvm.loop !62

.critedge:                                        ; preds = %30, %.lr.ph, %3
  %.0.lcssa = phi i32 [ -1, %3 ], [ -1, %.lr.ph ], [ %.1, %30 ]
  ret i32 %.0.lcssa
}